target datalayout = "e-m:e-p270:32:32-p271:32:32-p272:64:64-i64:64-i128:128-f80:128-n8:16:32:64-S128"
target triple = "x86_64-pc-linux-gnu"

%struct.RelationData = type { %struct.RelFileLocator, ptr, i32, i32, i8, i8, i8, i8, i8, i32, i32, i32, i32, ptr, ptr, i32, %struct.LockInfoData, ptr, ptr, ptr, ptr, ptr, i8, ptr, ptr, ptr, ptr, ptr, ptr, i32, ptr, i8, ptr, ptr, i32, i8, i32, ptr, i8, ptr, ptr, ptr, ptr, ptr, ptr, ptr, i32, ptr, ptr, ptr, ptr, ptr, ptr, ptr, ptr, ptr, ptr, ptr, ptr, ptr, ptr, ptr, ptr, ptr, ptr, ptr, i32, i8, ptr }
%struct.RelFileLocator = type { i32, i32, i32 }
%struct.LockInfoData = type { %struct.LockRelId }
%struct.LockRelId = type { i32, i32 }
%struct.FormData_pg_authid = type { i32, %struct.nameData, i8, i8, i8, i8, i8, i8, i8, i32 }
%struct.nameData = type { [64 x i8] }
%struct.ScanKeyData = type { i32, i16, i16, i32, i32, %struct.FmgrInfo, i64 }
%struct.FmgrInfo = type { ptr, i32, i16, i8, i8, i8, ptr, ptr, ptr }
%struct.FormData_pg_database = type { i32, %struct.nameData, i32, i32, i8, i8, i8, i8, i32, i32, i32, i32 }
%struct.HeapTupleData = type { i32, %struct.ItemPointerData, i32, ptr }
%struct.ItemPointerData = type { %struct.BlockIdData, i16 }
%struct.BlockIdData = type { i16, i16 }
%struct.HeapTupleHeaderData = type { %union.anon.1, %struct.ItemPointerData, i16, i16, i8, [0 x i8] }
%union.anon.1 = type { %struct.HeapTupleFields }
%struct.HeapTupleFields = type { i32, i32, %union.anon.2 }
%union.anon.2 = type { i32 }
%struct.ObjectAddress = type { i32, i32, i32 }

@.str.18 = private unnamed_addr constant [13 x i8] c"dbcommands.c\00", align 1
@object_access_hook = external global ptr, align 8
@.str.79 = private unnamed_addr constant [29 x i8] c"database \22%s\22 does not exist\00", align 1
@__func__.AlterDatabaseOwner = private unnamed_addr constant [19 x i8] c"AlterDatabaseOwner\00", align 1
@.str.103 = private unnamed_addr constant [46 x i8] c"permission denied to change owner of database\00", align 1

; Function Attrs: inlinehint nounwind uwtable
define internal i64 @PointerGetDatum(ptr noundef %0) #7 {
  %2 = alloca ptr, align 8
  store ptr %0, ptr %2, align 8
  %3 = load ptr, ptr %2, align 8
  %4 = ptrtoint ptr %3 to i64
  ret i64 %4
}

; Function Attrs: inlinehint nounwind uwtable
define internal ptr @DatumGetPointer(i64 noundef %0) #7 {
  %2 = alloca i64, align 8
  store i64 %0, ptr %2, align 8
  %3 = load i64, ptr %2, align 8
  %4 = inttoptr i64 %3 to ptr
  ret ptr %4
}

; Function Attrs: inlinehint nounwind uwtable
define internal i64 @ObjectIdGetDatum(i32 noundef %0) #7 {
  %2 = alloca i32, align 4
  store i32 %0, ptr %2, align 4
  %3 = load i32, ptr %2, align 4
  %4 = zext i32 %3 to i64
  ret i64 %4
}

; Function Attrs: nounwind uwtable
define dso_local zeroext i1 @have_createdb_privilege() #0 {
  %1 = alloca i1, align 1
  %2 = alloca i8, align 1
  %3 = alloca ptr, align 8
  %4 = alloca i32, align 4
  call void @llvm.lifetime.start.p0(i64 1, ptr %2) #14
  store i8 0, ptr %2, align 1
  call void @llvm.lifetime.start.p0(i64 8, ptr %3) #14
  %5 = call zeroext i1 @superuser()
  br i1 %5, label %6, label %7

6:                                                ; preds = %0
  store i1 true, ptr %1, align 1
  store i32 1, ptr %4, align 4
  br label %24

7:                                                ; preds = %0
  %8 = call i32 @GetUserId()
  %9 = call i64 @ObjectIdGetDatum(i32 noundef %8)
  %10 = call ptr @SearchSysCache1(i32 noundef 11, i64 noundef %9)
  store ptr %10, ptr %3, align 8
  %11 = load ptr, ptr %3, align 8
  %12 = icmp ne ptr %11, null
  br i1 %12, label %13, label %21

13:                                               ; preds = %7
  %14 = load ptr, ptr %3, align 8
  %15 = call ptr @GETSTRUCT(ptr noundef %14)
  %16 = getelementptr inbounds nuw %struct.FormData_pg_authid, ptr %15, i32 0, i32 5
  %17 = load i8, ptr %16, align 1, !range !4, !noundef !5
  %18 = trunc i8 %17 to i1
  %19 = zext i1 %18 to i8
  store i8 %19, ptr %2, align 1
  %20 = load ptr, ptr %3, align 8
  call void @ReleaseSysCache(ptr noundef %20)
  br label %21

21:                                               ; preds = %13, %7
  %22 = load i8, ptr %2, align 1, !range !4, !noundef !5
  %23 = trunc i8 %22 to i1
  store i1 %23, ptr %1, align 1
  store i32 1, ptr %4, align 4
  br label %24

24:                                               ; preds = %21, %6
  call void @llvm.lifetime.end.p0(i64 8, ptr %3) #14
  call void @llvm.lifetime.end.p0(i64 1, ptr %2) #14
  %25 = load i1, ptr %1, align 1
  ret i1 %25
}

; Function Attrs: inlinehint nounwind uwtable
define internal ptr @GETSTRUCT(ptr noundef %0) #7 {
  %2 = alloca ptr, align 8
  store ptr %0, ptr %2, align 8
  %3 = load ptr, ptr %2, align 8
  %4 = getelementptr inbounds nuw %struct.HeapTupleData, ptr %3, i32 0, i32 3
  %5 = load ptr, ptr %4, align 8
  %6 = load ptr, ptr %2, align 8
  %7 = getelementptr inbounds nuw %struct.HeapTupleData, ptr %6, i32 0, i32 3
  %8 = load ptr, ptr %7, align 8
  %9 = getelementptr inbounds nuw %struct.HeapTupleHeaderData, ptr %8, i32 0, i32 4
  %10 = load i8, ptr %9, align 2
  %11 = zext i8 %10 to i32
  %12 = sext i32 %11 to i64
  %13 = getelementptr inbounds i8, ptr %5, i64 %12
  ret ptr %13
}

; Function Attrs: inlinehint nounwind uwtable
define internal i64 @CStringGetDatum(ptr noundef %0) #7 {
  %2 = alloca ptr, align 8
  store ptr %0, ptr %2, align 8
  %3 = load ptr, ptr %2, align 8
  %4 = call i64 @PointerGetDatum(ptr noundef %3)
  ret i64 %4
}

; Function Attrs: nounwind uwtable
define dso_local { i64, i32 } @AlterDatabaseOwner(ptr noundef %0, i32 noundef %1) #0 {
  %3 = alloca %struct.ObjectAddress, align 4
  %4 = alloca ptr, align 8
  %5 = alloca i32, align 4
  %6 = alloca i32, align 4
  %7 = alloca ptr, align 8
  %8 = alloca ptr, align 8
  %9 = alloca %struct.ScanKeyData, align 8
  %10 = alloca ptr, align 8
  %11 = alloca ptr, align 8
  %12 = alloca [18 x i64], align 16
  %13 = alloca [18 x i8], align 16
  %14 = alloca [18 x i8], align 16
  %15 = alloca ptr, align 8
  %16 = alloca i64, align 8
  %17 = alloca i8, align 1
  %18 = alloca ptr, align 8
  %19 = alloca { i64, i32 }, align 8
  store ptr %0, ptr %4, align 8
  store i32 %1, ptr %5, align 4
  call void @llvm.lifetime.start.p0(i64 4, ptr %6) #14
  call void @llvm.lifetime.start.p0(i64 8, ptr %7) #14
  call void @llvm.lifetime.start.p0(i64 8, ptr %8) #14
  call void @llvm.lifetime.start.p0(i64 72, ptr %9) #14
  call void @llvm.lifetime.start.p0(i64 8, ptr %10) #14
  call void @llvm.lifetime.start.p0(i64 8, ptr %11) #14
  %20 = call ptr @table_open(i32 noundef 1262, i32 noundef 3)
  store ptr %20, ptr %8, align 8
  %21 = load ptr, ptr %4, align 8
  %22 = call i64 @CStringGetDatum(ptr noundef %21)
  call void @ScanKeyInit(ptr noundef %9, i16 noundef signext 2, i16 noundef zeroext 3, i32 noundef 62, i64 noundef %22)
  %23 = load ptr, ptr %8, align 8
  %24 = call ptr @systable_beginscan(ptr noundef %23, i32 noundef 2671, i1 noundef zeroext true, ptr noundef null, i32 noundef 1, ptr noundef %9)
  store ptr %24, ptr %10, align 8
  %25 = load ptr, ptr %10, align 8
  %26 = call ptr @systable_getnext(ptr noundef %25)
  store ptr %26, ptr %7, align 8
  %27 = load ptr, ptr %7, align 8
  %28 = icmp ne ptr %27, null
  br i1 %28, label %42, label %29

29:                                               ; preds = %2
  br label %30

30:                                               ; preds = %29
  br i1 true, label %31, label %33

31:                                               ; preds = %30
  %32 = call zeroext i1 @errstart_cold(i32 noundef 21, ptr noundef null) #17
  br i1 %32, label %35, label %39

33:                                               ; preds = %30
  %34 = call zeroext i1 @errstart(i32 noundef 21, ptr noundef null)
  br i1 %34, label %35, label %39

35:                                               ; preds = %33, %31
  %36 = call i32 @errcode(i32 noundef 1283)
  %37 = load ptr, ptr %4, align 8
  %38 = call i32 (ptr, ...) @errmsg(ptr noundef @.str.79, ptr noundef %37)
  call void @errfinish(ptr noundef @.str.18, i32 noundef 2663, ptr noundef @__func__.AlterDatabaseOwner)
  br label %39

39:                                               ; preds = %35, %33, %31
  unreachable

40:                                               ; No predecessors!
  br label %41

41:                                               ; preds = %40
  br label %42

42:                                               ; preds = %41, %2
  %43 = load ptr, ptr %7, align 8
  %44 = call ptr @GETSTRUCT(ptr noundef %43)
  store ptr %44, ptr %11, align 8
  %45 = load ptr, ptr %11, align 8
  %46 = getelementptr inbounds nuw %struct.FormData_pg_database, ptr %45, i32 0, i32 0
  %47 = load i32, ptr %46, align 4
  store i32 %47, ptr %6, align 4
  %48 = load ptr, ptr %11, align 8
  %49 = getelementptr inbounds nuw %struct.FormData_pg_database, ptr %48, i32 0, i32 2
  %50 = load i32, ptr %49, align 4
  %51 = load i32, ptr %5, align 4
  %52 = icmp ne i32 %50, %51
  br i1 %52, label %53, label %122

53:                                               ; preds = %42
  call void @llvm.lifetime.start.p0(i64 144, ptr %12) #14
  call void @llvm.lifetime.start.p0(i64 18, ptr %13) #14
  call void @llvm.memset.p0.i64(ptr align 16 %13, i8 0, i64 18, i1 false)
  call void @llvm.lifetime.start.p0(i64 18, ptr %14) #14
  call void @llvm.memset.p0.i64(ptr align 16 %14, i8 0, i64 18, i1 false)
  call void @llvm.lifetime.start.p0(i64 8, ptr %15) #14
  call void @llvm.lifetime.start.p0(i64 8, ptr %16) #14
  call void @llvm.lifetime.start.p0(i64 1, ptr %17) #14
  call void @llvm.lifetime.start.p0(i64 8, ptr %18) #14
  %54 = load i32, ptr %6, align 4
  %55 = call i32 @GetUserId()
  %56 = call zeroext i1 @object_ownercheck(i32 noundef 1262, i32 noundef %54, i32 noundef %55)
  br i1 %56, label %59, label %57

57:                                               ; preds = %53
  %58 = load ptr, ptr %4, align 8
  call void @aclcheck_error(i32 noundef 2, i32 noundef 9, ptr noundef %58)
  br label %59

59:                                               ; preds = %57, %53
  %60 = call i32 @GetUserId()
  %61 = load i32, ptr %5, align 4
  call void @check_can_set_role(i32 noundef %60, i32 noundef %61)
  %62 = call zeroext i1 @have_createdb_privilege()
  br i1 %62, label %75, label %63

63:                                               ; preds = %59
  br label %64

64:                                               ; preds = %63
  br i1 true, label %65, label %67

65:                                               ; preds = %64
  %66 = call zeroext i1 @errstart_cold(i32 noundef 21, ptr noundef null) #17
  br i1 %66, label %69, label %72

67:                                               ; preds = %64
  %68 = call zeroext i1 @errstart(i32 noundef 21, ptr noundef null)
  br i1 %68, label %69, label %72

69:                                               ; preds = %67, %65
  %70 = call i32 @errcode(i32 noundef 16797828)
  %71 = call i32 (ptr, ...) @errmsg(ptr noundef @.str.103)
  call void @errfinish(ptr noundef @.str.18, i32 noundef 2703, ptr noundef @__func__.AlterDatabaseOwner)
  br label %72

72:                                               ; preds = %69, %67, %65
  unreachable

73:                                               ; No predecessors!
  br label %74

74:                                               ; preds = %73
  br label %75

75:                                               ; preds = %74, %59
  %76 = load ptr, ptr %8, align 8
  %77 = load ptr, ptr %7, align 8
  %78 = getelementptr inbounds nuw %struct.HeapTupleData, ptr %77, i32 0, i32 1
  call void @LockTuple(ptr noundef %76, ptr noundef %78, i32 noundef 7)
  %79 = getelementptr inbounds [18 x i8], ptr %14, i64 0, i64 2
  store i8 1, ptr %79, align 2
  %80 = load i32, ptr %5, align 4
  %81 = call i64 @ObjectIdGetDatum(i32 noundef %80)
  %82 = getelementptr inbounds [18 x i64], ptr %12, i64 0, i64 2
  store i64 %81, ptr %82, align 16
  %83 = load ptr, ptr %7, align 8
  %84 = load ptr, ptr %8, align 8
  %85 = getelementptr inbounds nuw %struct.RelationData, ptr %84, i32 0, i32 14
  %86 = load ptr, ptr %85, align 8
  %87 = call i64 @heap_getattr(ptr noundef %83, i32 noundef 18, ptr noundef %86, ptr noundef %17)
  store i64 %87, ptr %16, align 8
  %88 = load i8, ptr %17, align 1, !range !4, !noundef !5
  %89 = trunc i8 %88 to i1
  br i1 %89, label %103, label %90

90:                                               ; preds = %75
  %91 = load i64, ptr %16, align 8
  %92 = call ptr @DatumGetPointer(i64 noundef %91)
  %93 = call ptr @pg_detoast_datum(ptr noundef %92)
  %94 = load ptr, ptr %11, align 8
  %95 = getelementptr inbounds nuw %struct.FormData_pg_database, ptr %94, i32 0, i32 2
  %96 = load i32, ptr %95, align 4
  %97 = load i32, ptr %5, align 4
  %98 = call ptr @aclnewowner(ptr noundef %93, i32 noundef %96, i32 noundef %97)
  store ptr %98, ptr %15, align 8
  %99 = getelementptr inbounds [18 x i8], ptr %14, i64 0, i64 17
  store i8 1, ptr %99, align 1
  %100 = load ptr, ptr %15, align 8
  %101 = call i64 @PointerGetDatum(ptr noundef %100)
  %102 = getelementptr inbounds [18 x i64], ptr %12, i64 0, i64 17
  store i64 %101, ptr %102, align 8
  br label %103

103:                                              ; preds = %90, %75
  %104 = load ptr, ptr %7, align 8
  %105 = load ptr, ptr %8, align 8
  %106 = getelementptr inbounds nuw %struct.RelationData, ptr %105, i32 0, i32 14
  %107 = load ptr, ptr %106, align 8
  %108 = getelementptr inbounds [18 x i64], ptr %12, i64 0, i64 0
  %109 = getelementptr inbounds [18 x i8], ptr %13, i64 0, i64 0
  %110 = getelementptr inbounds [18 x i8], ptr %14, i64 0, i64 0
  %111 = call ptr @heap_modify_tuple(ptr noundef %104, ptr noundef %107, ptr noundef %108, ptr noundef %109, ptr noundef %110)
  store ptr %111, ptr %18, align 8
  %112 = load ptr, ptr %8, align 8
  %113 = load ptr, ptr %18, align 8
  %114 = getelementptr inbounds nuw %struct.HeapTupleData, ptr %113, i32 0, i32 1
  %115 = load ptr, ptr %18, align 8
  call void @CatalogTupleUpdate(ptr noundef %112, ptr noundef %114, ptr noundef %115)
  %116 = load ptr, ptr %8, align 8
  %117 = load ptr, ptr %7, align 8
  %118 = getelementptr inbounds nuw %struct.HeapTupleData, ptr %117, i32 0, i32 1
  call void @UnlockTuple(ptr noundef %116, ptr noundef %118, i32 noundef 7)
  %119 = load ptr, ptr %18, align 8
  call void @heap_freetuple(ptr noundef %119)
  %120 = load i32, ptr %6, align 4
  %121 = load i32, ptr %5, align 4
  call void @changeDependencyOnOwner(i32 noundef 1262, i32 noundef %120, i32 noundef %121)
  call void @llvm.lifetime.end.p0(i64 8, ptr %18) #14
  call void @llvm.lifetime.end.p0(i64 1, ptr %17) #14
  call void @llvm.lifetime.end.p0(i64 8, ptr %16) #14
  call void @llvm.lifetime.end.p0(i64 8, ptr %15) #14
  call void @llvm.lifetime.end.p0(i64 18, ptr %14) #14
  call void @llvm.lifetime.end.p0(i64 18, ptr %13) #14
  call void @llvm.lifetime.end.p0(i64 144, ptr %12) #14
  br label %122

122:                                              ; preds = %103, %42
  br label %123

123:                                              ; preds = %122
  %124 = load ptr, ptr @object_access_hook, align 8
  %125 = icmp ne ptr %124, null
  br i1 %125, label %126, label %128

126:                                              ; preds = %123
  %127 = load i32, ptr %6, align 4
  call void @RunObjectPostAlterHook(i32 noundef 1262, i32 noundef %127, i32 noundef 0, i32 noundef 0, i1 noundef zeroext false)
  br label %128

128:                                              ; preds = %126, %123
  br label %129

129:                                              ; preds = %128
  br label %130

130:                                              ; preds = %129
  br label %131

131:                                              ; preds = %130
  %132 = getelementptr inbounds nuw %struct.ObjectAddress, ptr %3, i32 0, i32 0
  store i32 1262, ptr %132, align 4
  %133 = load i32, ptr %6, align 4
  %134 = getelementptr inbounds nuw %struct.ObjectAddress, ptr %3, i32 0, i32 1
  store i32 %133, ptr %134, align 4
  %135 = getelementptr inbounds nuw %struct.ObjectAddress, ptr %3, i32 0, i32 2
  store i32 0, ptr %135, align 4
  br label %136

136:                                              ; preds = %131
  br label %137

137:                                              ; preds = %136
  %138 = load ptr, ptr %10, align 8
  call void @systable_endscan(ptr noundef %138)
  %139 = load ptr, ptr %8, align 8
  call void @table_close(ptr noundef %139, i32 noundef 0)
  call void @llvm.lifetime.end.p0(i64 8, ptr %11) #14
  call void @llvm.lifetime.end.p0(i64 8, ptr %10) #14
  call void @llvm.lifetime.end.p0(i64 72, ptr %9) #14
  call void @llvm.lifetime.end.p0(i64 8, ptr %8) #14
  call void @llvm.lifetime.end.p0(i64 8, ptr %7) #14
  call void @llvm.lifetime.end.p0(i64 4, ptr %6) #14
  call void @llvm.memcpy.p0.p0.i64(ptr align 8 %19, ptr align 4 %3, i64 12, i1 false)
  %140 = load { i64, i32 }, ptr %19, align 8
  ret { i64, i32 } %140
}