; Function Attrs: nounwind uwtable
define dso_local { i64, i32 } @AlterDatabaseOwner(ptr noundef %0, i32 noundef %1) local_unnamed_addr #0 {
  %3 = alloca %struct.ScanKeyData, align 8
  %4 = alloca [18 x i64], align 16
  %5 = alloca [18 x i8], align 16
  %6 = alloca [18 x i8], align 16
  %7 = alloca i8, align 1
  call void @llvm.lifetime.start.p0(i64 72, ptr nonnull %3) #16
  %8 = tail call ptr @table_open(i32 noundef 1262, i32 noundef 3) #16
  %9 = ptrtoint ptr %0 to i64
  call void @ScanKeyInit(ptr noundef nonnull %3, i16 noundef signext 2, i16 noundef zeroext 3, i32 noundef 62, i64 noundef %9) #16
  %10 = call ptr @systable_beginscan(ptr noundef %8, i32 noundef 2671, i1 noundef zeroext true, ptr noundef null, i32 noundef 1, ptr noundef nonnull %3) #16
  %11 = call ptr @systable_getnext(ptr noundef %10) #16
  %.not = icmp eq ptr %11, null
  br i1 %.not, label %12, label %16

12:                                               ; preds = %2
  %13 = call zeroext i1 @errstart_cold(i32 noundef 21, ptr noundef null) #19
  call void @llvm.assume(i1 %13)
  %14 = call i32 @errcode(i32 noundef 1283) #16
  %15 = call i32 (ptr, ...) @errmsg(ptr noundef nonnull @.str.79, ptr noundef %0) #16
  call void @errfinish(ptr noundef nonnull @.str.18, i32 noundef 2663, ptr noundef nonnull @__func__.AlterDatabaseOwner) #16
  unreachable

16:                                               ; preds = %2
  %17 = getelementptr i8, ptr %11, i64 16
  %.val = load ptr, ptr %17, align 8
  %18 = getelementptr inbounds nuw i8, ptr %.val, i64 22
  %19 = load i8, ptr %18, align 2
  %20 = zext i8 %19 to i64
  %21 = getelementptr inbounds nuw i8, ptr %.val, i64 %20
  %22 = load i32, ptr %21, align 4
  %23 = getelementptr inbounds nuw i8, ptr %21, i64 68
  %24 = load i32, ptr %23, align 4
  %.not37 = icmp eq i32 %24, %1
  br i1 %.not37, label %68, label %25

25:                                               ; preds = %16
  call void @llvm.lifetime.start.p0(i64 144, ptr nonnull %4) #16
  call void @llvm.lifetime.start.p0(i64 18, ptr nonnull %5) #16
  call void @llvm.memset.p0.i64(ptr noundef nonnull align 16 dereferenceable(18) %5, i8 0, i64 18, i1 false)
  call void @llvm.lifetime.start.p0(i64 18, ptr nonnull %6) #16
  call void @llvm.memset.p0.i64(ptr noundef nonnull align 16 dereferenceable(18) %6, i8 0, i64 18, i1 false)
  call void @llvm.lifetime.start.p0(i64 1, ptr nonnull %7) #16
  %26 = call i32 @GetUserId() #16
  %27 = call zeroext i1 @object_ownercheck(i32 noundef 1262, i32 noundef %22, i32 noundef %26) #16
  br i1 %27, label %29, label %28

28:                                               ; preds = %25
  call void @aclcheck_error(i32 noundef 2, i32 noundef 9, ptr noundef %0) #16
  br label %29

29:                                               ; preds = %28, %25
  %30 = call i32 @GetUserId() #16
  call void @check_can_set_role(i32 noundef %30, i32 noundef %1) #16
  %31 = call zeroext i1 @superuser() #16
  br i1 %31, label %have_createdb_privilege.exit.thread, label %32

32:                                               ; preds = %29
  %33 = call i32 @GetUserId() #16
  %34 = zext i32 %33 to i64
  %35 = call ptr @SearchSysCache1(i32 noundef 11, i64 noundef %34) #16
  %.not.i = icmp eq ptr %35, null
  br i1 %.not.i, label %have_createdb_privilege.exit.thread40, label %have_createdb_privilege.exit

have_createdb_privilege.exit:                     ; preds = %32
  %36 = getelementptr i8, ptr %35, i64 16
  %.val.i = load ptr, ptr %36, align 8
  %37 = getelementptr inbounds nuw i8, ptr %.val.i, i64 22
  %38 = load i8, ptr %37, align 2
  %39 = zext i8 %38 to i64
  %40 = getelementptr inbounds nuw i8, ptr %.val.i, i64 %39
  %41 = getelementptr inbounds nuw i8, ptr %40, i64 71
  %42 = load i8, ptr %41, align 1, !range !4, !noundef !5
  call void @ReleaseSysCache(ptr noundef nonnull %35) #16
  %43 = trunc nuw i8 %42 to i1
  br i1 %43, label %have_createdb_privilege.exit.thread, label %have_createdb_privilege.exit.thread40

have_createdb_privilege.exit.thread40:            ; preds = %32, %have_createdb_privilege.exit
  %44 = call zeroext i1 @errstart_cold(i32 noundef 21, ptr noundef null) #19
  call void @llvm.assume(i1 %44)
  %45 = call i32 @errcode(i32 noundef 16797828) #16
  %46 = call i32 (ptr, ...) @errmsg(ptr noundef nonnull @.str.103) #16
  call void @errfinish(ptr noundef nonnull @.str.18, i32 noundef 2703, ptr noundef nonnull @__func__.AlterDatabaseOwner) #16
  unreachable

have_createdb_privilege.exit.thread:              ; preds = %29, %have_createdb_privilege.exit
  %47 = getelementptr inbounds nuw i8, ptr %11, i64 4
  call void @LockTuple(ptr noundef %8, ptr noundef nonnull %47, i32 noundef 7) #16
  %48 = getelementptr inbounds nuw i8, ptr %6, i64 2
  store i8 1, ptr %48, align 2
  %49 = zext i32 %1 to i64
  %50 = getelementptr inbounds nuw i8, ptr %4, i64 16
  store i64 %49, ptr %50, align 16
  %51 = getelementptr inbounds nuw i8, ptr %8, i64 64
  %52 = load ptr, ptr %51, align 8
  %53 = call fastcc i64 @heap_getattr(ptr noundef %11, i32 noundef 18, ptr noundef %52, ptr noundef %7)
  %54 = load i8, ptr %7, align 1, !range !4, !noundef !5
  %55 = trunc nuw i8 %54 to i1
  br i1 %55, label %64, label %56

56:                                               ; preds = %have_createdb_privilege.exit.thread
  %57 = inttoptr i64 %53 to ptr
  %58 = call ptr @pg_detoast_datum(ptr noundef %57) #16
  %59 = load i32, ptr %23, align 4
  %60 = call ptr @aclnewowner(ptr noundef %58, i32 noundef %59, i32 noundef %1) #16
  %61 = getelementptr inbounds nuw i8, ptr %6, i64 17
  store i8 1, ptr %61, align 1
  %62 = ptrtoint ptr %60 to i64
  %63 = getelementptr inbounds nuw i8, ptr %4, i64 136
  store i64 %62, ptr %63, align 8
  br label %64

64:                                               ; preds = %56, %have_createdb_privilege.exit.thread
  %65 = load ptr, ptr %51, align 8
  %66 = call ptr @heap_modify_tuple(ptr noundef nonnull %11, ptr noundef %65, ptr noundef nonnull %4, ptr noundef nonnull %5, ptr noundef nonnull %6) #16
  %67 = getelementptr inbounds nuw i8, ptr %66, i64 4
  call void @CatalogTupleUpdate(ptr noundef nonnull %8, ptr noundef nonnull %67, ptr noundef %66) #16
  call void @UnlockTuple(ptr noundef nonnull %8, ptr noundef nonnull %47, i32 noundef 7) #16
  call void @heap_freetuple(ptr noundef %66) #16
  call void @changeDependencyOnOwner(i32 noundef 1262, i32 noundef %22, i32 noundef %1) #16
  call void @llvm.lifetime.end.p0(i64 1, ptr nonnull %7) #16
  call void @llvm.lifetime.end.p0(i64 18, ptr nonnull %6) #16
  call void @llvm.lifetime.end.p0(i64 18, ptr nonnull %5) #16
  call void @llvm.lifetime.end.p0(i64 144, ptr nonnull %4) #16
  br label %68

68:                                               ; preds = %16, %64
  %69 = load ptr, ptr @object_access_hook, align 8
  %.not38 = icmp eq ptr %69, null
  br i1 %.not38, label %71, label %70

70:                                               ; preds = %68
  call void @RunObjectPostAlterHook(i32 noundef 1262, i32 noundef %22, i32 noundef 0, i32 noundef 0, i1 noundef zeroext false) #16
  br label %71

71:                                               ; preds = %68, %70
  call void @systable_endscan(ptr noundef %10) #16
  call void @table_close(ptr noundef %8, i32 noundef 0) #16
  call void @llvm.lifetime.end.p0(i64 72, ptr nonnull %3) #16
  %.sroa.235.0.insert.ext = zext i32 %22 to i64
  %.sroa.235.0.insert.shift = shl nuw i64 %.sroa.235.0.insert.ext, 32
  %.sroa.034.0.insert.insert = or disjoint i64 %.sroa.235.0.insert.shift, 1262
  %.fca.0.insert = insertvalue { i64, i32 } poison, i64 %.sroa.034.0.insert.insert, 0
  %.fca.1.insert = insertvalue { i64, i32 } %.fca.0.insert, i32 0, 1
  ret { i64, i32 } %.fca.1.insert
}